; Function Attrs: mustprogress nounwind uwtable
define dso_local void @_ZN6crypto12SymmetricKeyD0Ev(ptr noundef nonnull align 8 dereferenceable(40) %this) unnamed_addr #0 align 2 personality ptr @__gxx_personality_v0 {
entry:
  store ptr getelementptr inbounds ({ [4 x ptr] }, ptr @_ZTVN6crypto12SymmetricKeyE, i64 0, i32 0, i64 2), ptr %this, align 8
  %key_.i = getelementptr inbounds i8, ptr %this, i64 8
  %call.i = tail call ptr @_ZNSt7__cxx1112basic_stringIcSt11char_traitsIcESaIcEE5beginEv(ptr noundef nonnull align 8 dereferenceable(32) %key_.i) #8
  %call4.i = tail call ptr @_ZNSt7__cxx1112basic_stringIcSt11char_traitsIcESaIcEE3endEv(ptr noundef nonnull align 8 dereferenceable(32) %key_.i) #8
  %tobool.not.i.i.i.i.i = icmp eq ptr %call4.i, %call.i
  br i1 %tobool.not.i.i.i.i.i, label %_ZN6crypto12SymmetricKeyD2Ev.exit, label %if.then.i.i.i.i.i

if.then.i.i.i.i.i:                                ; preds = %entry
  %sub.ptr.rhs.cast.i.i.i.i.i = ptrtoint ptr %call.i to i64
  %sub.ptr.lhs.cast.i.i.i.i.i = ptrtoint ptr %call4.i to i64
  %sub.ptr.sub.i.i.i.i.i = sub i64 %sub.ptr.lhs.cast.i.i.i.i.i, %sub.ptr.rhs.cast.i.i.i.i.i
  tail call void @llvm.memset.p0.i64(ptr align 1 %call.i, i8 0, i64 %sub.ptr.sub.i.i.i.i.i, i1 false)
  br label %_ZN6crypto12SymmetricKeyD2Ev.exit

_ZN6crypto12SymmetricKeyD2Ev.exit:                ; preds = %entry, %if.then.i.i.i.i.i
  tail call void @_ZNSt7__cxx1112basic_stringIcSt11char_traitsIcESaIcEED1Ev(ptr noundef nonnull align 8 dereferenceable(32) %key_.i) #8
  tail call void @_ZdlPv(ptr noundef nonnull %this) #10
  ret void
}